Archive member included to satisfy reference by file (symbol)

/courses/TDDI11/sw/lib/elf/libepc.a(init-cpu.o)
                              (start)
/courses/TDDI11/sw/lib/elf/libepc.a(init-idt.o)
                              main.o (IRQ2INT)
/courses/TDDI11/sw/lib/elf/libepc.a(init-crt.o)
                              /courses/TDDI11/sw/lib/elf/libepc.a(init-cpu.o) (Init_CRT)
/courses/TDDI11/sw/lib/elf/libepc.a(display.o)
                              main.o (SetCursorVisible)
/courses/TDDI11/sw/lib/elf/libepc.a(init8259.o)
                              /courses/TDDI11/sw/lib/elf/libepc.a(init-cpu.o) (Init8259)
/courses/TDDI11/sw/lib/elf/libepc.a(init8253.o)
                              /courses/TDDI11/sw/lib/elf/libepc.a(init-cpu.o) (Init8253)
/courses/TDDI11/sw/lib/elf/libepc.a(queue.o)
                              main.o (QueueCreate)
/courses/TDDI11/sw/lib/elf/libepc.a(window.o)
                              inbound.o (WindowCreate)
/courses/TDDI11/sw/lib/elf/libepc.a(checkcpu.o)
                              /courses/TDDI11/sw/lib/elf/libepc.a(init-cpu.o) (Check_CPU)
/courses/TDDI11/sw/lib/elf/libepc.a(io.o)
                              /courses/TDDI11/sw/lib/elf/libepc.a(init-idt.o) (ISR_PIC1)
/courses/TDDI11/sw/lib/elf/libepc.a(keyboard.o)
                              outbound.o (ScanCodeRdy)
/courses/TDDI11/sw/lib/elf/libepc.a(heap.o)
                              /courses/TDDI11/sw/lib/elf/libepc.a(queue.o) (malloc)
/courses/TDDI11/sw/lib/elf/djgpp/libc.a(ct_flags.o)
                              outbound.o (__dj_ctype_flags)
/courses/TDDI11/sw/lib/elf/djgpp/libc.a(memcpy.o)
                              /courses/TDDI11/sw/lib/elf/libepc.a(queue.o) (_memcpy)
/courses/TDDI11/sw/lib/elf/djgpp/libc.a(strcpy.o)
                              /courses/TDDI11/sw/lib/elf/libepc.a(window.o) (_strcpy)
/courses/TDDI11/sw/lib/elf/djgpp/libc.a(strlen.o)
                              /courses/TDDI11/sw/lib/elf/libepc.a(window.o) (_strlen)
/courses/TDDI11/sw/lib/elf/djgpp/libc.a(disable.o)
                              main.o (disable)
/courses/TDDI11/sw/lib/elf/djgpp/libc.a(enable.o)
                              main.o (enable)
/courses/TDDI11/sw/lib/elf/djgpp/libc.a(djmd.o)
                              /courses/TDDI11/sw/lib/elf/djgpp/libc.a(memcpy.o) (___dj_movedata)

Allocating common symbols
Common symbol       size              file

inbound_queue       0x4               main.o

Discarded input sections

 .eh_frame      0x0000000000000000       0x5c main.o
 .eh_frame      0x0000000000000000       0x58 inbound.o
 .eh_frame      0x0000000000000000       0x58 outbound.o

Memory Configuration

Name             Origin             Length             Attributes
conventional     0x0000000000000000 0x00000000000a0000
reserved         0x00000000000a0000 0x0000000000060000
extended         0x0000000000100000 0x00000000fff00000
*default*        0x0000000000000000 0xffffffffffffffff

Linker script and memory map

LOAD main.o
LOAD serial.o
LOAD inbound.o
LOAD outbound.o
LOAD /courses/TDDI11/sw/lib/elf/libepc.a
LOAD /courses/TDDI11/sw/lib/elf/djgpp/libc.a
LOAD /courses/TDDI11/sw/i386-elf-gcc-7.3.0/lib/gcc/i386-elf/7.3.0/libgcc.a

.text           0x0000000000000000     0x2734
                0x0000000000000000                text_frst = .
 *(.start)
 .start         0x0000000000000000        0x8 /courses/TDDI11/sw/lib/elf/libepc.a(init-cpu.o)
                0x0000000000000000                start
 *(.init)
 *(.text)
 .text          0x0000000000000008      0x11d main.o
                0x0000000000000008                main
                0x0000000000000062                InitSerial
 *fill*         0x0000000000000125        0xb 
 .text          0x0000000000000130       0x4f serial.o
                0x0000000000000130                SerialPut
                0x0000000000000145                SerialISR
 .text          0x000000000000017f       0x60 inbound.o
                0x000000000000017f                InitInBound
                0x00000000000001a5                InBound
 .text          0x00000000000001df       0xea outbound.o
                0x00000000000001df                InitOutBound
                0x0000000000000205                OutBound
 *fill*         0x00000000000002c9        0x3 
 .text          0x00000000000002cc       0x50 /courses/TDDI11/sw/lib/elf/libepc.a(init-cpu.o)
                0x00000000000002cc                Init_CPU
 .text          0x000000000000031c      0x5a0 /courses/TDDI11/sw/lib/elf/libepc.a(init-idt.o)
                0x000000000000072c                IRQ2INT
                0x0000000000000740                _GetISR
                0x0000000000000784                SetISR
                0x00000000000007bc                Init_IDT
 .text          0x00000000000008bc      0x110 /courses/TDDI11/sw/lib/elf/libepc.a(init-crt.o)
                0x00000000000008bc                Init_CRT
                0x00000000000008f0                _LastMemoryAddress
 .text          0x00000000000009cc      0x6e0 /courses/TDDI11/sw/lib/elf/libepc.a(display.o)
                0x00000000000009cc                SetCursorVisible
                0x0000000000000a50                _GetCursorRow
                0x0000000000000a64                _GetCursorCol
                0x0000000000000a78                SetCursorPosition
                0x0000000000000b1c                ClearScreen
                0x0000000000000b84                _PutAttb
                0x0000000000000bd0                _PutCharAt
                0x0000000000000bfc                _PutChar
                0x0000000000000c80                PutString
                0x0000000000000cb8                PutUnsigned
                0x0000000000000cf0                FormatUnsigned
                0x0000000000000d80                Unsigned2Ascii
                0x0000000000000e04                _Cell
 .text          0x00000000000010ac       0xe0 /courses/TDDI11/sw/lib/elf/libepc.a(init8259.o)
                0x00000000000010ac                Init8259
 .text          0x000000000000118c       0xb0 /courses/TDDI11/sw/lib/elf/libepc.a(init8253.o)
                0x000000000000118c                Init8253
 .text          0x000000000000123c      0x180 /courses/TDDI11/sw/lib/elf/libepc.a(queue.o)
                0x000000000000123c                QueueCreate
                0x00000000000012a8                QueueRemove
                0x000000000000132c                QueueInsert
 .text          0x00000000000013bc      0x600 /courses/TDDI11/sw/lib/elf/libepc.a(window.o)
                0x00000000000013c0                WindowCreate
                0x00000000000014a8                _WindowErase
                0x0000000000001518                WindowSelect
                0x000000000000153c                WindowSetCursor
                0x000000000000156c                WindowPutChar
                0x000000000000164c                WindowPutString
 .text          0x00000000000019bc       0x98 /courses/TDDI11/sw/lib/elf/libepc.a(checkcpu.o)
                0x00000000000019bc                Check_CPU
 .text          0x0000000000001a54       0x60 /courses/TDDI11/sw/lib/elf/libepc.a(io.o)
                0x0000000000001a54                TimerTickISR
                0x0000000000001a60                KeyboardISR
                0x0000000000001a80                ISR_PIC1
                0x0000000000001a87                ISR_PIC2
                0x0000000000001a90                ___main
                0x0000000000001a91                inportb
                0x0000000000001a9b                outportb
                0x0000000000001aad                _exit
 .text          0x0000000000001ab4      0x570 /courses/TDDI11/sw/lib/elf/libepc.a(keyboard.o)
                0x0000000000001ab4                ScanCodeRdy
                0x0000000000001ad8                GetScanCode
                0x0000000000001b08                ScanCode2Ascii
                0x0000000000001cc8                SetsKybdState
                0x0000000000001eb8                Enqueue
 .text          0x0000000000002024      0x660 /courses/TDDI11/sw/lib/elf/libepc.a(heap.o)
                0x0000000000002024                malloc
                0x00000000000020d8                free
 .text          0x0000000000002684        0x0 /courses/TDDI11/sw/lib/elf/djgpp/libc.a(ct_flags.o)
 .text          0x0000000000002684       0x1c /courses/TDDI11/sw/lib/elf/djgpp/libc.a(memcpy.o)
                0x0000000000002684                _memcpy
 .text          0x00000000000026a0       0x28 /courses/TDDI11/sw/lib/elf/djgpp/libc.a(strcpy.o)
                0x00000000000026a0                _strcpy
 .text          0x00000000000026c8       0x24 /courses/TDDI11/sw/lib/elf/djgpp/libc.a(strlen.o)
                0x00000000000026c8                _strlen
 .text          0x00000000000026ec       0x10 /courses/TDDI11/sw/lib/elf/djgpp/libc.a(disable.o)
                0x00000000000026ec                disable
 .text          0x00000000000026fc       0x10 /courses/TDDI11/sw/lib/elf/djgpp/libc.a(enable.o)
                0x00000000000026fc                enable
 .text          0x000000000000270c       0x28 /courses/TDDI11/sw/lib/elf/djgpp/libc.a(djmd.o)
                0x000000000000270c                ___dj_movedata
                0x0000000000002733                text_last = (. - 0x1)

.data           0x0000000000002734      0x8c1
                0x0000000000002734                data_frst = .
 *(.data)
 .data          0x0000000000002734        0x0 main.o
 .data          0x0000000000002734        0x1 serial.o
 .data          0x0000000000002735        0x0 inbound.o
 .data          0x0000000000002735        0x0 outbound.o
 *fill*         0x0000000000002735        0x3 
 .data          0x0000000000002738       0x20 /courses/TDDI11/sw/lib/elf/libepc.a(init-cpu.o)
                0x0000000000002756                code_selector
 .data          0x0000000000002758       0x90 /courses/TDDI11/sw/lib/elf/libepc.a(init-idt.o)
 .data          0x00000000000027e8       0x10 /courses/TDDI11/sw/lib/elf/libepc.a(init-crt.o)
 .data          0x00000000000027f8       0x30 /courses/TDDI11/sw/lib/elf/libepc.a(display.o)
 .data          0x0000000000002828        0x0 /courses/TDDI11/sw/lib/elf/libepc.a(init8259.o)
 .data          0x0000000000002828        0x0 /courses/TDDI11/sw/lib/elf/libepc.a(init8253.o)
 .data          0x0000000000002828        0x0 /courses/TDDI11/sw/lib/elf/libepc.a(queue.o)
 .data          0x0000000000002828        0x0 /courses/TDDI11/sw/lib/elf/libepc.a(window.o)
 .data          0x0000000000002828        0xc /courses/TDDI11/sw/lib/elf/libepc.a(io.o)
                0x0000000000002828                msec
                0x000000000000282c                old_tick_isr
                0x0000000000002830                old_kybd_isr
 .data          0x0000000000002834      0x5a0 /courses/TDDI11/sw/lib/elf/libepc.a(keyboard.o)
 .data          0x0000000000002dd4       0x10 /courses/TDDI11/sw/lib/elf/libepc.a(heap.o)
 .data          0x0000000000002de4      0x204 /courses/TDDI11/sw/lib/elf/djgpp/libc.a(ct_flags.o)
                0x0000000000002de4                __dj_ctype_flags
 .data          0x0000000000002fe8        0x0 /courses/TDDI11/sw/lib/elf/djgpp/libc.a(memcpy.o)
 .data          0x0000000000002fe8        0x0 /courses/TDDI11/sw/lib/elf/djgpp/libc.a(strcpy.o)
 .data          0x0000000000002fe8        0x0 /courses/TDDI11/sw/lib/elf/djgpp/libc.a(strlen.o)
 .data          0x0000000000002fe8        0x0 /courses/TDDI11/sw/lib/elf/djgpp/libc.a(disable.o)
 .data          0x0000000000002fe8        0x0 /courses/TDDI11/sw/lib/elf/djgpp/libc.a(enable.o)
 .data          0x0000000000002fe8        0x0 /courses/TDDI11/sw/lib/elf/djgpp/libc.a(djmd.o)
 *(.rodata)
 .rodata        0x0000000000002fe8        0x7 inbound.o
 .rodata        0x0000000000002fef        0x6 outbound.o
 *(.rodata.str1.1)
 *(.rodata.str1.32)
                0x0000000000002ff4                data_last = (. - 0x1)

.bss            0x0000000000002ff8      0x848
                0x0000000000002ff8                bss_frst = .
 *(.bss)
 .bss           0x0000000000002ff8        0x0 main.o
 .bss           0x0000000000002ff8        0x4 inbound.o
 .bss           0x0000000000002ffc        0x4 outbound.o
 .bss           0x0000000000003000      0x800 /courses/TDDI11/sw/lib/elf/libepc.a(init-idt.o)
 .bss           0x0000000000003800        0x0 /courses/TDDI11/sw/lib/elf/libepc.a(init-crt.o)
 .bss           0x0000000000003800        0x8 /courses/TDDI11/sw/lib/elf/libepc.a(display.o)
 .bss           0x0000000000003808        0x0 /courses/TDDI11/sw/lib/elf/libepc.a(init8259.o)
 .bss           0x0000000000003808        0x0 /courses/TDDI11/sw/lib/elf/libepc.a(init8253.o)
 .bss           0x0000000000003808        0x0 /courses/TDDI11/sw/lib/elf/libepc.a(queue.o)
 .bss           0x0000000000003808        0x0 /courses/TDDI11/sw/lib/elf/libepc.a(window.o)
 .bss           0x0000000000003808       0x34 /courses/TDDI11/sw/lib/elf/libepc.a(keyboard.o)
 .bss           0x000000000000383c        0x0 /courses/TDDI11/sw/lib/elf/libepc.a(heap.o)
 .bss           0x000000000000383c        0x0 /courses/TDDI11/sw/lib/elf/djgpp/libc.a(ct_flags.o)
 .bss           0x000000000000383c        0x0 /courses/TDDI11/sw/lib/elf/djgpp/libc.a(memcpy.o)
 .bss           0x000000000000383c        0x0 /courses/TDDI11/sw/lib/elf/djgpp/libc.a(strcpy.o)
 .bss           0x000000000000383c        0x0 /courses/TDDI11/sw/lib/elf/djgpp/libc.a(strlen.o)
 .bss           0x000000000000383c        0x0 /courses/TDDI11/sw/lib/elf/djgpp/libc.a(disable.o)
 .bss           0x000000000000383c        0x0 /courses/TDDI11/sw/lib/elf/djgpp/libc.a(enable.o)
 .bss           0x000000000000383c        0x0 /courses/TDDI11/sw/lib/elf/djgpp/libc.a(djmd.o)
 *(COMMON)
 COMMON         0x000000000000383c        0x4 main.o
                0x000000000000383c                inbound_queue
                0x000000000000383f                bss_last = (. - 0x1)

/DISCARD/
 *(.eh_frame)
                0x0000000000003840                stack_frst = (bss_last + 0x1)
                0x000000000000b83f                stack_last = (bss_last + 0x8000)
                0x000000000000b840                heap_frst = (stack_last + 0x1)
OUTPUT(embedded.bin binary)

.debug_info     0x0000000000000000      0x4a9
 .debug_info    0x0000000000000000      0x165 main.o
 .debug_info    0x0000000000000165      0x1b0 inbound.o
 .debug_info    0x0000000000000315      0x194 outbound.o

.debug_abbrev   0x0000000000000000      0x2ab
 .debug_abbrev  0x0000000000000000       0xd6 main.o
 .debug_abbrev  0x00000000000000d6       0xe7 inbound.o
 .debug_abbrev  0x00000000000001bd       0xee outbound.o

.debug_aranges  0x0000000000000000       0x60
 .debug_aranges
                0x0000000000000000       0x20 main.o
 .debug_aranges
                0x0000000000000020       0x20 inbound.o
 .debug_aranges
                0x0000000000000040       0x20 outbound.o

.debug_line     0x0000000000000000      0x1d5
 .debug_line    0x0000000000000000       0xbd main.o
 .debug_line    0x00000000000000bd       0x67 inbound.o
 .debug_line    0x0000000000000124       0xb1 outbound.o

.debug_str      0x0000000000000000      0x3f6
 .debug_str     0x0000000000000000      0x166 main.o
 .debug_str     0x0000000000000166      0x148 inbound.o
 .debug_str     0x00000000000002ae      0x148 outbound.o

.comment        0x0000000000000000       0x36
 .comment       0x0000000000000000       0x12 main.o
 .comment       0x0000000000000012       0x12 inbound.o
 .comment       0x0000000000000024       0x12 outbound.o
